(dp1
S'OriginalConfig'
p2
ccopy_reg
_reconstructor
p3
(cWMCore.Configuration
Configuration
p4
c__builtin__
object
p5
NtRp6
(dp7
S'Site'
p8
g3
(cWMCore.Configuration
ConfigSection
p9
g5
NtRp10
(dp11
S'_internal_documentation'
p12
S''
sS'_internal_settings'
p13
c__builtin__
set
p14
((lp15
S'storageSite'
p16
atRp17
sS'_internal_name'
p18
g8
sS'_internal_docstrings'
p19
(dp20
sS'_internal_children'
p21
g14
((ltRp22
sg16
S'T3_US_UMD'
p23
sS'_internal_parent_ref'
p24
NsbsS'_internal_sections'
p25
(lp26
S'General'
p27
aS'JobType'
p28
aS'Data'
p29
ag8
asg27
g3
(g9
g5
NtRp30
(dp31
S'transferLogs'
p32
I01
sg12
S''
sg13
g14
((lp33
g32
aS'workArea'
p34
aS'requestName'
p35
atRp36
sg18
g27
sg19
(dp37
sg21
g14
((ltRp38
sg35
S'EmJetSignalMC-20160719-225216'
p39
sg24
Nsg34
S'crabTasks/EmJetSignalMC-20160719-225216'
p40
sbsS'_internal_webapps'
p41
(lp42
sS'_internal_components'
p43
(lp44
sg29
g3
(g9
g5
NtRp45
(dp46
S'outputDatasetTag'
p47
S'mass_X_d_400_mass_pi_d_1_tau_pi_d_0p001'
p48
sS'totalUnits'
p49
I100
sS'unitsPerJob'
p50
I100
sg12
S''
sg13
g14
((lp51
g47
aS'publication'
p52
ag50
aS'splitting'
p53
aS'outLFNDirBase'
p54
aS'outputPrimaryDataset'
p55
ag49
atRp56
sg54
S'/store/user/mamouzeg/EmJet/'
p57
sg18
g29
sg53
S'EventBased'
p58
sg19
(dp59
sg21
g14
((ltRp60
sg55
S'EmergingJets_mass_X_d_400_mass_pi_d_1_tau_pi_d_0p001_TuneCUETP8M1_13TeV_pythia8Mod'
p61
sg24
Nsg52
I01
sbsg28
g3
(g9
g5
NtRp62
(dp63
g12
S''
sg13
g14
((lp64
S'psetName'
p65
aS'pluginName'
p66
aS'scriptExe'
p67
atRp68
sg18
g28
sg67
S'cmsRunWrapper.sh'
p69
sg19
(dp70
sg66
S'PrivateMC'
p71
sg21
g14
((ltRp72
sg65
S'/afs/cern.ch/user/m/mamouzeg/YOURWORKINGAREA/CMSSW_7_1_14/src/emjet_generate/jobs/mass_X_d_400_mass_pi_d_1_tau_pi_d_0p001/mass_X_d_400_mass_pi_d_1_tau_pi_d_0p001_cfg.py'
p73
sg24
NsbsbsS'voGroup'
p74
S''
sS'Server'
p75
S'cmsweb.cern.ch'
p76
sS'instance'
p77
S'prod'
p78
sS'RequestName'
p79
S'160719_205254:mamouzeg_crab_EmJetSignalMC-20160719-225216'
p80
sS'voRole'
p81
S'NULL'
p82
sS'Port'
p83
S''
s.